target datalayout = "e-m:e-p270:32:32-p271:32:32-p272:64:64-i64:64-i128:128-f80:128-n8:16:32:64-S128"
target triple = "x86_64-pc-linux-gnu"

%struct.register_ct = type { i8, i32, ptr, ptr, ptr, ptr }

@registered_ct_tables = internal global ptr null, align 8

; Function Attrs: null_pointer_is_valid sspstrong uwtable
define void @register_conversation_table(i32 noundef %0, i1 noundef zeroext %1, ptr noundef %2, ptr noundef %3) #1 {
  %5 = alloca i32, align 4
  %6 = alloca i8, align 1
  %7 = alloca ptr, align 8
  %8 = alloca ptr, align 8
  %9 = alloca ptr, align 8
  store i32 %0, ptr %5, align 4
  %10 = zext i1 %1 to i8
  store i8 %10, ptr %6, align 1
  store ptr %2, ptr %7, align 8
  store ptr %3, ptr %8, align 8
  call void @llvm.lifetime.start.p0(i64 8, ptr %9) #16
  %11 = call ptr @wmem_epan_scope()
  %12 = call noalias ptr @wmem_alloc(ptr noundef %11, i64 noundef 40) #18
  store ptr %12, ptr %9, align 8
  %13 = load i8, ptr %6, align 1, !range !6, !noundef !7
  %14 = trunc i8 %13 to i1
  %15 = load ptr, ptr %9, align 8
  %16 = getelementptr inbounds nuw %struct.register_ct, ptr %15, i32 0, i32 0
  %17 = zext i1 %14 to i8
  store i8 %17, ptr %16, align 8
  %18 = load i32, ptr %5, align 4
  %19 = load ptr, ptr %9, align 8
  %20 = getelementptr inbounds nuw %struct.register_ct, ptr %19, i32 0, i32 1
  store i32 %18, ptr %20, align 4
  %21 = load ptr, ptr %7, align 8
  %22 = load ptr, ptr %9, align 8
  %23 = getelementptr inbounds nuw %struct.register_ct, ptr %22, i32 0, i32 2
  store ptr %21, ptr %23, align 8
  %24 = load ptr, ptr %8, align 8
  %25 = load ptr, ptr %9, align 8
  %26 = getelementptr inbounds nuw %struct.register_ct, ptr %25, i32 0, i32 3
  store ptr %24, ptr %26, align 8
  %27 = load ptr, ptr %9, align 8
  %28 = getelementptr inbounds nuw %struct.register_ct, ptr %27, i32 0, i32 4
  store ptr null, ptr %28, align 8
  %29 = load ptr, ptr %9, align 8
  %30 = getelementptr inbounds nuw %struct.register_ct, ptr %29, i32 0, i32 5
  store ptr null, ptr %30, align 8
  %31 = load ptr, ptr @registered_ct_tables, align 8
  %32 = icmp eq ptr %31, null
  br i1 %32, label %33, label %36

33:                                               ; preds = %4
  %34 = call ptr @wmem_epan_scope()
  %35 = call noalias ptr @wmem_tree_new(ptr noundef %34)
  store ptr %35, ptr @registered_ct_tables, align 8
  br label %36

36:                                               ; preds = %33, %4
  %37 = load ptr, ptr @registered_ct_tables, align 8
  %38 = load i32, ptr %5, align 4
  %39 = call ptr @find_protocol_by_id(i32 noundef %38)
  %40 = call ptr @proto_get_protocol_short_name(ptr noundef %39)
  %41 = load ptr, ptr %9, align 8
  call void @wmem_tree_insert_string(ptr noundef %37, ptr noundef %40, ptr noundef %41, i32 noundef 0)
  call void @llvm.lifetime.end.p0(i64 8, ptr %9) #16
  ret void
}