; Function Attrs: null_pointer_is_valid sspstrong uwtable
define void @register_conversation_table(i32 noundef %0, i1 noundef zeroext %1, ptr noundef %2, ptr noundef %3) local_unnamed_addr #1 {
  %5 = zext i1 %1 to i8
  %6 = tail call ptr @wmem_epan_scope()
  %7 = tail call noalias dereferenceable_or_null(40) ptr @wmem_alloc(ptr noundef %6, i64 noundef 40) #14
  store i8 %5, ptr %7, align 8
  %8 = getelementptr inbounds nuw i8, ptr %7, i64 4
  store i32 %0, ptr %8, align 4
  %9 = getelementptr inbounds nuw i8, ptr %7, i64 8
  store ptr %2, ptr %9, align 8
  %10 = getelementptr inbounds nuw i8, ptr %7, i64 16
  store ptr %3, ptr %10, align 8
  %11 = getelementptr inbounds nuw i8, ptr %7, i64 24
  tail call void @llvm.memset.p0.i64(ptr noundef nonnull align 8 dereferenceable(16) %11, i8 0, i64 16, i1 false)
  %12 = load ptr, ptr @registered_ct_tables, align 8
  %13 = icmp eq ptr %12, null
  br i1 %13, label %14, label %17

14:                                               ; preds = %4
  %15 = tail call ptr @wmem_epan_scope()
  %16 = tail call noalias ptr @wmem_tree_new(ptr noundef %15)
  store ptr %16, ptr @registered_ct_tables, align 8
  br label %17

17:                                               ; preds = %14, %4
  %18 = phi ptr [ %16, %14 ], [ %12, %4 ]
  %19 = tail call ptr @find_protocol_by_id(i32 noundef %0)
  %20 = tail call ptr @proto_get_protocol_short_name(ptr noundef %19)
  tail call void @wmem_tree_insert_string(ptr noundef %18, ptr noundef %20, ptr noundef %7, i32 noundef 0)
  ret void
}